target datalayout = "e-m:e-p270:32:32-p271:32:32-p272:64:64-i64:64-i128:128-f80:128-n8:16:32:64-S128"
target triple = "x86_64-unknown-linux-gnu"

%struct.SCSISense = type { i8, i8, i8 }
%struct.SCSIDiskState = type { %struct.SCSIDevice, i32, i8, i8, i8, i16, i64, i64, i32, ptr, ptr, ptr, ptr, ptr, ptr, i8, i8, i16 }
%struct.SCSIDevice = type { %struct.DeviceState, ptr, ptr, i32, %struct.BlockConf, %struct.SCSISense, i8, [252 x i8], i32, %union.anon, i32, i32, i32, i32, i64, i64, i64, i32, i32, i32, i8, i8 }
%struct.DeviceState = type { %struct.Object, ptr, ptr, i8, i8, i64, ptr, i32, i8, ptr, %struct.NamedGPIOListHead, %struct.NamedClockListHead, %struct.BusStateHead, i32, i32, i32, %struct.ResettableState, ptr, %struct.MemReentrancyGuard }
%struct.Object = type { ptr, ptr, ptr, i32, ptr }
%struct.NamedGPIOListHead = type { ptr }
%struct.NamedClockListHead = type { ptr }
%struct.BusStateHead = type { ptr }
%struct.ResettableState = type { i32, i8, i8 }
%struct.MemReentrancyGuard = type { i8 }
%struct.BlockConf = type { ptr, i32, i32, i32, i32, i32, i32, i32, i32, i32, i32, i32, i32, i32, i32, i8, i32, i32, i32, i32 }
%union.anon = type { %struct.QTailQLink }
%struct.QTailQLink = type { ptr, ptr }

@.str.5 = private unnamed_addr constant [28 x i8] c"../qemu/hw/scsi/scsi-disk.c\00", align 1
@.str.138 = private unnamed_addr constant [9 x i8] c"ret == 0\00", align 1
@__PRETTY_FUNCTION__.scsi_cd_realize = private unnamed_addr constant [45 x i8] c"void scsi_cd_realize(SCSIDevice *, Error **)\00", align 1
@.str.139 = private unnamed_addr constant [12 x i8] c"QEMU CD-ROM\00", align 1

; Function Attrs: nounwind sspstrong uwtable
define internal void @scsi_cd_realize(ptr noundef %dev, ptr noundef %errp) #0 {
entry:
  %dev.addr = alloca ptr, align 8
  %errp.addr = alloca ptr, align 8
  %s = alloca ptr, align 8
  %tmp = alloca ptr, align 8
  %__mptr = alloca ptr, align 8
  %tmp1 = alloca ptr, align 8
  %ctx = alloca ptr, align 8
  %ret = alloca i32, align 4
  %blocksize = alloca i32, align 4
  store ptr %dev, ptr %dev.addr, align 8
  store ptr %errp, ptr %errp.addr, align 8
  %0 = load ptr, ptr %dev.addr, align 8
  store ptr %0, ptr %__mptr, align 8
  %1 = load ptr, ptr %__mptr, align 8
  %add.ptr = getelementptr i8, ptr %1, i64 0
  store ptr %add.ptr, ptr %tmp1, align 8
  %2 = load ptr, ptr %tmp1, align 8
  store ptr %2, ptr %tmp, align 8
  %3 = load ptr, ptr %tmp, align 8
  store ptr %3, ptr %s, align 8
  store i32 2048, ptr %blocksize, align 4
  %4 = load ptr, ptr %dev.addr, align 8
  %conf = getelementptr inbounds %struct.SCSIDevice, ptr %4, i32 0, i32 4
  %blk = getelementptr inbounds %struct.BlockConf, ptr %conf, i32 0, i32 0
  %5 = load ptr, ptr %blk, align 8
  %tobool = icmp ne ptr %5, null
  br i1 %tobool, label %if.end9, label %if.then

if.then:                                          ; preds = %entry
  %call = call ptr @qemu_get_aio_context()
  %call2 = call ptr @blk_new(ptr noundef %call, i64 noundef 0, i64 noundef 15)
  %6 = load ptr, ptr %dev.addr, align 8
  %conf3 = getelementptr inbounds %struct.SCSIDevice, ptr %6, i32 0, i32 4
  %blk4 = getelementptr inbounds %struct.BlockConf, ptr %conf3, i32 0, i32 0
  store ptr %call2, ptr %blk4, align 8
  %7 = load ptr, ptr %dev.addr, align 8
  %conf5 = getelementptr inbounds %struct.SCSIDevice, ptr %7, i32 0, i32 4
  %blk6 = getelementptr inbounds %struct.BlockConf, ptr %conf5, i32 0, i32 0
  %8 = load ptr, ptr %blk6, align 8
  %9 = load ptr, ptr %dev.addr, align 8
  %qdev = getelementptr inbounds %struct.SCSIDevice, ptr %9, i32 0, i32 0
  %call7 = call i32 @blk_attach_dev(ptr noundef %8, ptr noundef %qdev)
  store i32 %call7, ptr %ret, align 4
  %10 = load i32, ptr %ret, align 4
  %cmp = icmp eq i32 %10, 0
  br i1 %cmp, label %if.then8, label %if.else

if.then8:                                         ; preds = %if.then
  br label %if.end

if.else:                                          ; preds = %if.then
  call void @__assert_fail(ptr noundef @.str.138, ptr noundef @.str.5, i32 noundef 2588, ptr noundef @__PRETTY_FUNCTION__.scsi_cd_realize) #11
  unreachable

if.end:                                           ; preds = %if.then8
  br label %if.end9

if.end9:                                          ; preds = %if.end, %entry
  %11 = load ptr, ptr %dev.addr, align 8
  %conf10 = getelementptr inbounds %struct.SCSIDevice, ptr %11, i32 0, i32 4
  %physical_block_size = getelementptr inbounds %struct.BlockConf, ptr %conf10, i32 0, i32 2
  %12 = load i32, ptr %physical_block_size, align 4
  %cmp11 = icmp ne i32 %12, 0
  br i1 %cmp11, label %if.then12, label %if.end15

if.then12:                                        ; preds = %if.end9
  %13 = load ptr, ptr %dev.addr, align 8
  %conf13 = getelementptr inbounds %struct.SCSIDevice, ptr %13, i32 0, i32 4
  %physical_block_size14 = getelementptr inbounds %struct.BlockConf, ptr %conf13, i32 0, i32 2
  %14 = load i32, ptr %physical_block_size14, align 4
  store i32 %14, ptr %blocksize, align 4
  br label %if.end15

if.end15:                                         ; preds = %if.then12, %if.end9
  %15 = load ptr, ptr %dev.addr, align 8
  %conf16 = getelementptr inbounds %struct.SCSIDevice, ptr %15, i32 0, i32 4
  %blk17 = getelementptr inbounds %struct.BlockConf, ptr %conf16, i32 0, i32 0
  %16 = load ptr, ptr %blk17, align 8
  %call18 = call ptr @blk_get_aio_context(ptr noundef %16)
  store ptr %call18, ptr %ctx, align 8
  %17 = load ptr, ptr %ctx, align 8
  call void @aio_context_acquire(ptr noundef %17)
  %18 = load i32, ptr %blocksize, align 4
  %19 = load ptr, ptr %s, align 8
  %qdev19 = getelementptr inbounds %struct.SCSIDiskState, ptr %19, i32 0, i32 0
  %blocksize20 = getelementptr inbounds %struct.SCSIDevice, ptr %qdev19, i32 0, i32 12
  store i32 %18, ptr %blocksize20, align 8
  %20 = load ptr, ptr %s, align 8
  %qdev21 = getelementptr inbounds %struct.SCSIDiskState, ptr %20, i32 0, i32 0
  %type = getelementptr inbounds %struct.SCSIDevice, ptr %qdev21, i32 0, i32 13
  store i32 5, ptr %type, align 4
  %21 = load ptr, ptr %s, align 8
  %features = getelementptr inbounds %struct.SCSIDiskState, ptr %21, i32 0, i32 1
  %22 = load i32, ptr %features, align 8
  %or = or i32 %22, 1
  store i32 %or, ptr %features, align 8
  %23 = load ptr, ptr %s, align 8
  %product = getelementptr inbounds %struct.SCSIDiskState, ptr %23, i32 0, i32 13
  %24 = load ptr, ptr %product, align 8
  %tobool22 = icmp ne ptr %24, null
  br i1 %tobool22, label %if.end26, label %if.then23

if.then23:                                        ; preds = %if.end15
  %call24 = call noalias ptr @g_strdup(ptr noundef @.str.139)
  %25 = load ptr, ptr %s, align 8
  %product25 = getelementptr inbounds %struct.SCSIDiskState, ptr %25, i32 0, i32 13
  store ptr %call24, ptr %product25, align 8
  br label %if.end26

if.end26:                                         ; preds = %if.then23, %if.end15
  %26 = load ptr, ptr %s, align 8
  %qdev27 = getelementptr inbounds %struct.SCSIDiskState, ptr %26, i32 0, i32 0
  %27 = load ptr, ptr %errp.addr, align 8
  call void @scsi_realize(ptr noundef %qdev27, ptr noundef %27)
  %28 = load ptr, ptr %ctx, align 8
  call void @aio_context_release(ptr noundef %28)
  ret void
}