; Function Attrs: nounwind sspstrong uwtable
define internal void @scsi_cd_realize(ptr noundef %dev, ptr noundef %errp) #0 {
entry:
  %conf = getelementptr inbounds nuw i8, ptr %dev, i64 184
  %0 = load ptr, ptr %conf, align 8
  %tobool.not = icmp eq ptr %0, null
  br i1 %tobool.not, label %if.then, label %if.end9

if.then:                                          ; preds = %entry
  %call = tail call ptr @qemu_get_aio_context() #18
  %call2 = tail call ptr @blk_new(ptr noundef %call, i64 noundef 0, i64 noundef 15) #18
  store ptr %call2, ptr %conf, align 8
  %call7 = tail call i32 @blk_attach_dev(ptr noundef %call2, ptr noundef nonnull %dev) #18
  %cmp = icmp eq i32 %call7, 0
  br i1 %cmp, label %if.then.if.end9_crit_edge, label %if.else

if.then.if.end9_crit_edge:                        ; preds = %if.then
  %.pre = load ptr, ptr %conf, align 8
  br label %if.end9

if.else:                                          ; preds = %if.then
  tail call void @__assert_fail(ptr noundef nonnull @.str.138, ptr noundef nonnull @.str.5, i32 noundef 2588, ptr noundef nonnull @__PRETTY_FUNCTION__.scsi_cd_realize) #19
  unreachable

if.end9:                                          ; preds = %if.then.if.end9_crit_edge, %entry
  %1 = phi ptr [ %.pre, %if.then.if.end9_crit_edge ], [ %0, %entry ]
  %physical_block_size = getelementptr inbounds nuw i8, ptr %dev, i64 196
  %2 = load i32, ptr %physical_block_size, align 4
  %cmp11.not = icmp eq i32 %2, 0
  %spec.select = select i1 %cmp11.not, i32 2048, i32 %2
  %call18 = tail call ptr @blk_get_aio_context(ptr noundef %1) #18
  tail call void @aio_context_acquire(ptr noundef %call18) #18
  %blocksize20 = getelementptr inbounds nuw i8, ptr %dev, i64 560
  store i32 %spec.select, ptr %blocksize20, align 8
  %type = getelementptr inbounds nuw i8, ptr %dev, i64 564
  store i32 5, ptr %type, align 4
  %features = getelementptr inbounds nuw i8, ptr %dev, i64 608
  %3 = load i32, ptr %features, align 8
  %or = or i32 %3, 1
  store i32 %or, ptr %features, align 8
  %product = getelementptr inbounds nuw i8, ptr %dev, i64 680
  %4 = load ptr, ptr %product, align 8
  %tobool22.not = icmp eq ptr %4, null
  br i1 %tobool22.not, label %if.then23, label %if.end26

if.then23:                                        ; preds = %if.end9
  %call24 = tail call noalias ptr @g_strdup(ptr noundef nonnull @.str.139) #18
  store ptr %call24, ptr %product, align 8
  br label %if.end26

if.end26:                                         ; preds = %if.then23, %if.end9
  tail call fastcc void @scsi_realize(ptr noundef nonnull %dev, ptr noundef %errp)
  tail call void @aio_context_release(ptr noundef %call18) #18
  ret void
}